; Function Attrs: inlinehint mustprogress uwtable
define internal void @"_ZN4pbrt4$_118__invokeERNS_16StatsAccumulatorE"(ptr noundef nonnull align 8 dereferenceable(8) %0) #15 align 2 {
  %2 = tail call align 8 ptr @llvm.threadlocal.address.p0(ptr align 8 @_ZN4pbrtL8nBLPHitsE)
  %3 = load i64, ptr %2, align 8, !tbaa !59
  %4 = tail call align 8 ptr @llvm.threadlocal.address.p0(ptr align 8 @_ZN4pbrtL11nBLPHitsSumE)
  %5 = load i64, ptr %4, align 8, !tbaa !59
  %6 = add nsw i64 %5, %3
  %7 = tail call align 8 ptr @llvm.threadlocal.address.p0(ptr align 8 @_ZN4pbrtL9nBLPTestsE)
  %8 = load i64, ptr %7, align 8, !tbaa !59
  %9 = tail call align 8 ptr @llvm.threadlocal.address.p0(ptr align 8 @_ZN4pbrtL12nBLPTestsSumE)
  %10 = load i64, ptr %9, align 8, !tbaa !59
  %11 = add nsw i64 %10, %8
  tail call void @_ZN4pbrt16StatsAccumulator11ReportRatioEPKcll(ptr noundef nonnull align 8 dereferenceable(8) %0, ptr noundef nonnull @.str.135, i64 noundef %6, i64 noundef %11)
  store i64 0, ptr %2, align 8, !tbaa !59
  store i64 0, ptr %4, align 8, !tbaa !59
  store i64 0, ptr %7, align 8, !tbaa !59
  store i64 0, ptr %9, align 8, !tbaa !59
  ret void
}